(ikeras_frcnn.config
Config
p0
(dp1
S'use_vertical_flips'
p2
I00
sS'verbose'
p3
I01
sS'classifier_regr_std'
p4
(lp5
F8.0
aF8.0
aF4.0
aF4.0
asS'classifier_min_overlap'
p6
F0.1
sS'rot_90'
p7
I00
sS'class_mapping'
p8
(dp9
S'*'
p10
I0
sS'bg'
p11
I1
ssS'use_horizontal_flips'
p12
I01
sS'rpn_max_overlap'
p13
F0.7
sS'network'
p14
S'vgg16'
p15
sS'img_channel_mean'
p16
(lp17
F103.939
aF116.779
aF123.68
asS'balanced_classes'
p18
I00
sS'anchor_box_ratios'
p19
(lp20
(lp21
I1
aI1
aa(lp22
I1
aI2
aa(lp23
I2
aI1
aasS'img_scaling_factor'
p24
F1.0
sS'rpn_stride'
p25
I16
sS'num_rois'
p26
I10
sS'base_net_weights'
p27
S'/home/dgxuser138/Team_25_HD/frcnn-from-scratch-with-keras-master/mobilenet_1_0_224_tf.h5'
p28
sS'anchor_box_scales'
p29
(lp30
I128
aI256
aI512
asS'rpn_min_overlap'
p31
F0.3
sS'model_path'
p32
S'models/vgg/voc.hdf5'
p33
sS'classifier_max_overlap'
p34
F0.5
sS'std_scaling'
p35
F4.0
sS'im_size'
p36
I600
sb.